(dp0
Vengine
p1
Vlualatex
p2
sVpackages
p3
c__builtin__
set
p4
((lp5
Vxcolor
p6
aVbooktabs
p7
aVamsmath
p8
aVbiblatex
p9
aVetoolbox
p10
aVframed
p11
aVrotating
p12
aVsvg
p13
aVtodonotes
p14
aVcancel
p15
aVarray
p16
aVstix2
p17
aVmathtools
p18
aVletltxmacro
p19
aVtcolorbox
p20
aVbookmark
p21
aVdatetime
p22
aVfootnote
p23
aVmicrotype
p24
aVbropd
p25
aVinputenc
p26
aVlineno
p27
aVenumitem
p28
aVifluatex
p29
aVempheq
p30
aVesdiff
p31
aVmoresize
p32
aVbm
p33
aVfontspec
p34
aVhyperref
p35
aVunicode-math
p36
aVcleveref
p37
aVrelsize
p38
aViftex
p39
aVxparse
p40
aVgraphicx
p41
aVoutlines
p42
aVsubfig
p43
aVcool
p44
aVtikzscale
p45
aVchemmacros
p46
aVchemfig
p47
aVifxetex
p48
aVsoul
p49
aVcmap
p50
aVpgfplots
p51
aVfontenc
p52
aVfvextra
p53
aVphysics
p54
aVamssymb
p55
atp56
Rp57
sVfiles_with_guttermarks
p58
g4
((lp59
V/Users/mskblackbelt/Library/Mobile Documents/com~apple~CloudDocs/iCloud Drive/Teaching/2019 - Spring/Chem357/357 Experiment guides/HCl:DCl/./HCl_DCl.tex
p60
aS'HCl_DCl.tex'
p61
atp62
Rp63
sVsynctex
p64
I01
s.