(dp0
Vengine
p1
Vlualatex
p2
sVpackages
p3
c__builtin__
set
p4
((lp5
Vfancybox
p6
aVxcolor
p7
aVbooktabs
p8
aVamsmath
p9
aVbiblatex
p10
aVetoolbox
p11
aVframed
p12
aVrotating
p13
aVcancel
p14
aVarray
p15
aVstix2
p16
aVmathtools
p17
aVletltxmacro
p18
aVempheq
p19
aVbookmark
p20
aVdatetime
p21
aVfootnote
p22
aVmicrotype
p23
aVbropd
p24
aVinputenc
p25
aVlineno
p26
aVenumitem
p27
aVifluatex
p28
aVverbatim
p29
aVesdiff
p30
aVmoresize
p31
aVbm
p32
aVfontspec
p33
aVhyperref
p34
aVunicode-math
p35
aVcleveref
p36
aVrelsize
p37
aViftex
p38
aVxparse
p39
aVgraphicx
p40
aVoutlines
p41
aVsubfig
p42
aVcool
p43
aVtikzscale
p44
aVchemmacros
p45
aVchemfig
p46
aVifxetex
p47
aVlistings
p48
aVsoul
p49
aVcmap
p50
aVpgfplots
p51
aVfontenc
p52
aVsvg
p53
aVphysics
p54
aVamssymb
p55
atp56
Rp57
sVfiles_with_guttermarks
p58
g4
((lp59
S'Fluorescence.tex'
p60
atp61
Rp62
sVsynctex
p63
I01
s.