(dp0
Vengine
p1
Vlualatex
p2
sVpackages
p3
c__builtin__
set
p4
((lp5
tp6
Rp7
sVfiles_with_guttermarks
p8
g4
((lp9
S'potentials.tikz'
p10
aS'/Users/mskblackbelt/Library/Mobile Documents/com~apple~CloudDocs/iCloud Drive/Teaching/2019 - Spring/Chem357/357 Experiment guides/HCl:DCl/images/potentials.tikz'
p11
aV/Users/mskblackbelt/Library/Mobile Documents/com~apple~CloudDocs/iCloud Drive/Teaching/2019 - Spring/Chem357/357 Experiment guides/HCl:DCl/images/./potentials.tikz
p12
atp13
Rp14
sVsynctex
p15
I01
s.