(dp0
Vengine
p1
Vlualatex
p2
sVpackages
p3
c__builtin__
set
p4
((lp5
Vxcolor
p6
aVbooktabs
p7
aVamsmath
p8
aVbiblatex
p9
aVetoolbox
p10
aVframed
p11
aVrotating
p12
aVcancel
p13
aVarray
p14
aVstix2
p15
aVmathtools
p16
aVxparse
p17
aVletltxmacro
p18
aVtcolorbox
p19
aVbookmark
p20
aVtikzscale
p21
aVfootnote
p22
aVmicrotype
p23
aVbropd
p24
aVinputenc
p25
aVifxetex
p26
aVlineno
p27
aVenumitem
p28
aVifluatex
p29
aVempheq
p30
aVesdiff
p31
aVmoresize
p32
aVbm
p33
aVfontspec
p34
aVunicode-math
p35
aVcleveref
p36
aVrelsize
p37
aVsubfig
p38
aViftex
p39
aVdatetime
p40
aVgraphicx
p41
aVoutlines
p42
aVtodonotes
p43
aVcool
p44
aVhyperref
p45
aVchemmacros
p46
aVchemfig
p47
aVsvg
p48
aVsoul
p49
aVcmap
p50
aVpgfplots
p51
aVfontenc
p52
aVfvextra
p53
aVphysics
p54
aVamssymb
p55
atp56
Rp57
sVfiles_with_guttermarks
p58
g4
((lp59
S'Polymers.tex'
p60
atp61
Rp62
sVsynctex
p63
I01
s.